MPASM  5.51                     TM1621LCD.ASM   2-21-2018  11:21:32         PAGE  1


LOC  OBJECT CODE     LINE SOURCE TEXT
  VALUE

                      00001         list p=16f887
                      00002         include <p16f887.inc>
                      00001         LIST
                      00002 
                      00003 ;==========================================================================
                      00004 ;  MPASM PIC16F887 processor include
                      00005 ; 
                      00006 ;  (c) Copyright 1999-2013 Microchip Technology, All rights reserved
                      00007 ;==========================================================================
                      00008 
                      00809         LIST
  0000                00003         extern pause_5us, pause_3us ;<pauses_20MHz.asm> 
  0000                00004         global simb_pos, Display_Data
  0000                00005         global init_LCD, LCD_Data_Duplicate, Data_to_LCD
  0000                00006         global LCD_ON, LCD_OFF, PrintSimb, PrintMsg
  0000                00007         global PrintFirstStr, PrintSecondStr, PrintThirdStr
  0000                00008         global SetKoma, ClrKoma, KomaPos, koma_set
                      00009 
                      00010         #define CS PORTB,4
                      00011         #define WR PORTB,5
                      00012         #define DATA_PIN PORTB,7
                      00013 
                      00014 ;коды дисплея
                      00015         include <TM1621.inc>
                      00001 ;-----таблица соответсвия символов чтобы легко было менять для других индикаторов------------
  0000007D            00002 simb0 equ 0x7D ;код символа "0"
  00000060            00003 simb1 equ 0x60 ;код символа "1" 
  0000003E            00004 simb2 equ 0x3E ;код символа "2"
  0000007A            00005 simb3 equ 0x7A ;код символа "3"
  00000063            00006 simb4 equ 0x63 ;код символа "4"
  0000005B            00007 simb5 equ 0x5B ;код символа "5","S"
  0000005F            00008 simb6 equ 0x5F ;код символа "6"
  00000070            00009 simb7 equ 0x70 ;код символа "7"
  0000007F            00010 simb8 equ 0x7F ;код символа "8"
  0000007B            00011 simb9 equ 0x7B ;код символа "9"
  000000FD            00012 simb0_ equ 0xFD ;код символа ".0"
  000000E0            00013 simb1_ equ 0xE0 ;код символа ".1"
  000000BE            00014 simb2_ equ 0xBE ;код символа ".2"
  000000FA            00015 simb3_ equ 0xFA ;код символа ".3"
  000000E3            00016 simb4_ equ 0xE3 ;код символа ".4"
  000000DB            00017 simb5_ equ 0xDB ;код символа ".5"
  000000DF            00018 simb6_ equ 0xDF ;код символа ".6"
  000000F0            00019 simb7_ equ 0xF0 ;код символа ".7"
  000000FF            00020 simb8_ equ 0xFF ;код символа ".8"
  000000FB            00021 simb9_ equ 0xFB ;код символа ".9"
  00000077            00022 simbA equ 0x77 ;код символа "A"
  0000004F            00023 simbb equ 0x4F ;код символа "b"
  0000001D            00024 simbC equ 0x1D ;код символа "C"
  0000006E            00025 simbd equ 0x6E ;код символа "d"
  0000001F            00026 simbE equ 0x1F ;код символа "E"
  00000017            00027 simbF equ 0x17 ;код символа "F"
  0000005D            00028 simbG equ 0x5D ;код символа "G"
  00000067            00029 simbH equ 0x67 ;код символа "H"
MPASM  5.51                     TM1621LCD.ASM   2-21-2018  11:21:32         PAGE  2


LOC  OBJECT CODE     LINE SOURCE TEXT
  VALUE

  0000006C            00030 simbJ equ 0x6C ;код символа "J"
  0000000D            00031 simbL equ 0x0D ;код символа "L"
  00000046            00032 simbn equ 0x46 ;код символа "n"
  00000037            00033 simbP equ 0x37 ;код символа "P"
  00000006            00034 simbr equ 0x06 ;код символа "r"
  0000000F            00035 simbt equ 0x0F ;код символа "t"
  0000006D            00036 simbU equ 0x6D ;код символа "U"
  0000006B            00037 simbY equ 0x6B ;код символа "Y"
  00000002            00038 simbmin equ 0x02 ;код символа "минус"
  00000000            00039 empty equ 0x00 ;код символа "пусто"
                      00016 
                      00017         udata
0000                  00018 simb_pos        res 1
0001                  00019 Display_Data res .16 ;область содержащая коды для вывода на экран
0011                  00020 KomaPos         res 1
                      00021         udata_ovr
0000                  00022 temp            res 1
0001                  00023 buf_temp        res 1
0002                  00024 counter         res 1
0003                  00025 simb_temp       res 1
0004                  00026 temp2           res 1
                      00027 ;------------------------------------------------------------------------------
                      00028 ;макросы
                      00029 ;-----------------------------------------------------------------
                      00030 ;установка банка 0
                      00031 SET_BANK0 MACRO 
                      00032         bcf STATUS, RP0
                      00033         bcf STATUS, RP1 
                      00034         ENDM
                      00035 ;---------------------------------------------------------------------
                      00036         code
                      00037 ;-----------------------------------------------------------------------
0000                  00038 init_LCD;инициализация дисплея
                      00039         SET_BANK0
0000   1283               M         bcf STATUS, RP0
0001   1303               M         bcf STATUS, RP1 
0002   1606           00040         bsf CS
0003   1286           00041         bcf WR
0004   ???? ???? 2??? 00042         lcall pause_5us 
0007   ???? ???? 2??? 00043         lcall SYS_EN ;команда SYS EN согласно документации на драйвер 100 000000011
000A   ???? ???? 2??? 00044         lcall RC_256K ;команда RC_256K согласно документации на драйвер 100 000110000
000D   ???? ???? 2??? 00045         lcall BIAS_1_3 ;команда BIAS ab=10:4 LCD 1/3 согласно документации на драйвер 100 001010011
0010   ???? ???? 2??? 00046         lcall LCD_OFF ;команда LCD OFF согласно документации на драйвер 100 000000100
0013   ???? ???? 2??? 00047         lcall TONE4K
0016   ???? ???? 2??? 00048         lcall TNORMAL
0019   ???? ???? 2??? 00049         lcall LCD_ON ;команда LCD ON согласно документации на драйвер 100 000000111
001C   0008           00050         return
                      00051 ;-------------------------------------------------------------------------
                      00052 ;LCD_Data_Duplicate(lcd_data_addr)
                      00053 ;lcd_data_addr - адрес ячейки начиная с которой располагается буфер считанных с весов данных 
                      00054 ;lcd_data_addr перед вызовом процедуры записывается в аккумулятор
001D                  00055 LCD_Data_Duplicate
001D   ???? ????      00056         banksel buf_temp
MPASM  5.51                     TM1621LCD.ASM   2-21-2018  11:21:32         PAGE  3


LOC  OBJECT CODE     LINE SOURCE TEXT
  VALUE

001F   00??           00057         movwf buf_temp
0020   3E12           00058         addlw .18 ;bufer_count (LCD_bufer+18)
0021   0084           00059         movwf FSR
0022   0800           00060         movf INDF, 0
0023   00??           00061         movwf temp ;temp=bufer_count т.к. он идет сразу после самого буфера
0024   08??           00062         movf buf_temp, 0
0025   0084           00063         movwf FSR
                      00064         SET_BANK0
0026   1283               M         bcf STATUS, RP0
0027   1303               M         bcf STATUS, RP1 
0028   1206           00065         bcf CS 
0029   ???? ???? 2??? 00066         lcall pause_5us ;пауза 5 мкс
002C   ???? ????      00067         pagesel $
002E   ???? ????      00068         banksel counter
0030                  00069 next_dupl_byte
0030   3008           00070         movlw .8
0031   00??           00071         movwf counter
0032                  00072 next_dupl_bit
0032   1F80           00073         btfss INDF,7
0033   2???           00074         goto zero_dupl
0034   2???           00075         call SET_ONE ;подача логической единицы на драйвер дисплея
0035                  00076 test_dupl_bit
0035   ???? ????      00077         banksel temp
0037   0B??           00078         decfsz temp,1 
0038   2???           00079         goto next_dupl ;если не все принятые биты переданы идем на передачу
                      00080         SET_BANK0
0039   1283               M         bcf STATUS, RP0
003A   1303               M         bcf STATUS, RP1 
003B   1606           00081         bsf CS ;если все CS=1 и выходим
003C   0008           00082         return
003D                  00083 next_dupl
003D   0D80           00084         rlf INDF,1 ;
003E   0B??           00085         decfsz counter,1 
003F   2???           00086         goto next_dupl_bit ;если еще не передан очередной байт
0040   0A84           00087         incf FSR,1
0041   2???           00088         goto next_dupl_byte
0042                  00089 zero_dupl
0042   2???           00090         call SET_ZERO ;подача логического нуля на драйвер дисплея       
0043   2???           00091         goto test_dupl_bit
                      00092 ;-------------------------------------------------------------------
                      00093 ;Отправка данных буфера в дисплей
                      00094 ;Data_to_LCD(lcd_data_addr)
                      00095 ;lcd_data_addr - адрес ячейки начиная с которой располагается буфер считанных с весов данных 
                      00096 ;16 байт начиная с адреса записанного в аккумулятор
0044                  00097 Data_to_LCD
0044   ???? ????      00098         banksel buf_temp
0046   00??           00099         movwf buf_temp ;адрес начала области вывода     
0047   2???           00100         call WRITE ;команда драйвера дисплея (запись данных) 101
0048   ???? ????      00101         banksel counter 
004A   3006           00102         movlw .6 ;подаем начальный адрес 000000
004B   00??           00103         movwf counter
004C                  00104 send_zero_4
004C   2???           00105         call SET_ZERO ;подача логического нуля на драйвер дисплея
MPASM  5.51                     TM1621LCD.ASM   2-21-2018  11:21:32         PAGE  4


LOC  OBJECT CODE     LINE SOURCE TEXT
  VALUE

004D   ???? ????      00106         banksel counter 
004F   0B??           00107         decfsz counter,1
0050   2???           00108         goto send_zero_4
                      00109         ;выводим данные 32*4 бит
0051   08??           00110         movf buf_temp,0
0052   0084           00111         movwf FSR
0053                  00112 send_next_byte  
0053   3008           00113         movlw .8
0054   00??           00114         movwf counter
0055   0800           00115         movf INDF,0
0056   00??           00116         movwf temp
0057                  00117 send_next_bit
0057   1F80           00118         btfss temp,7
0058   2???           00119         goto send_zero
0059   2???           00120         call SET_ONE ;подача логической единицы на драйвер дисплея
005A                  00121 shift_bit
005A   ???? ????      00122         banksel temp    
005C   0D??           00123         rlf temp,1
005D   0B??           00124         decfsz counter,1
005E   2???           00125         goto send_next_bit
005F   0A84           00126         incf FSR,1
0060   08??           00127         movf buf_temp,0 ;!!
0061   3E10           00128         addlw 0x10      ;!!
0062   0604           00129         xorwf FSR, 0 ;!!
0063   1D03           00130         btfss STATUS,Z ;если адрес уже 0х70 - заканчиваем отправку данных
0064   2???           00131         goto send_next_byte     
                      00132         SET_BANK0
0065   1283               M         bcf STATUS, RP0
0066   1303               M         bcf STATUS, RP1 
0067   1606           00133         bsf CS ;CS=1
0068   ???? ???? 2??? 00134         lcall pause_3us ;пауза 3 мкс
006B   ???? ????      00135         pagesel $
006D   0008           00136         return
006E                  00137 send_zero
006E   2???           00138         call SET_ZERO ;подача логического нуля на драйвер дисплея       
006F   2???           00139         goto shift_bit
                      00140 ;--------------------------------------------------------------------------
                      00141 ;- Вывести символ в указанной позиции
                      00142 ;PrintSimb(SimbCode, Simb_Pos)
                      00143 ;SimbCode - ASCII код выводимого символа при вызове загружен в аккумулятор
                      00144 ;Simb_Pos – позиция в которой выводить символ (от 1 до 16: 1-5 первая строка, 6-10 вторая строка, 11-16 
                            третья строка)
0070                  00145 PrintSimb
0070   ???? ???? 2??? 00146         lcall ASCII_to_LCDcode ;w=LCDcode(ASCIIcode)
0073   ???? ????      00147         pagesel $
0075   00??           00148         movwf buf_temp
0076   0804           00149         movf FSR,0 ;сохраняем FSR
0077   00??           00150         movwf simb_temp
                      00151 
0078   08??           00152         movf simb_pos,0
0079   3C10           00153         sublw .16 ;w=16-simb_pos
007A   3E??           00154         addlw Display_Data ;w=Display_Data+16-simb_pos
007B   0084           00155         movwf FSR
MPASM  5.51                     TM1621LCD.ASM   2-21-2018  11:21:32         PAGE  5


LOC  OBJECT CODE     LINE SOURCE TEXT
  VALUE

007C   08??           00156         movf buf_temp,0
007D   0080           00157         movwf INDF
                      00158 
007E   08??           00159         movf simb_temp,0
007F   0084           00160         movwf FSR ;восстанавливаем FSR
                      00161         
0080   30??           00162         movlw Display_Data
0081   2???           00163         call Data_to_LCD
0082   0008           00164         return
                      00165 ;-----------------------------------------------------------------------
                      00166 ;- Преобразовать ASCII буфер (16 символов+2 байта с позициями запятых) в код для вывод на дисплей
                      00167 ;Convert_ASCII_to_LCD(lcd_data_addr, ASCII_data)
                      00168 ;lcd_data_addr - адрес ячейки начиная с которой располагается буфер для вывода на дисплей
                      00169 ;ASCII_data – данные в виде ASCII кода (поочередно – сначала 1я строка 5 символов, потом 2я строка 5 сим
                            волов, потом 3я строка 6 символов)
                      00170 ;буфер ASCII кода подается в аккумуляторе
                      00171 ;буфер дисплея 16 байт начиная с Display_Data
0083                  00172 Convert_ASCII_to_LCD
                      00173         ;ячейки буфера дисплея расположены противоположно ячекам разрядов в ASCII коде
0083   ???? ????      00174         banksel buf_temp
0085   00??           00175         movwf buf_temp
0086   0804           00176         movf FSR,0 ;сохраняем FSR
0087   00??           00177         movwf simb_temp
0088   3010           00178         movlw .16
0089   00??           00179         movwf counter
008A                  00180 nextASCII
008A   08??           00181         movf buf_temp,0
008B   0084           00182         movwf FSR
008C   0800           00183         movf INDF,0 ;W=ASCII[i]
008D   ???? ???? 2??? 00184         lcall ASCII_to_LCDcode ;w=LCDcode[i]
0090   ???? ????      00185         pagesel $
0092   00??           00186         movwf temp
0093   03??           00187         decf counter,0 ;W=counter-1
0094   3E??           00188         addlw Display_Data ;W=[Display_Data]+counter-1 т.е. адрес ячейки буфера в кот. надо писать
0095   0084           00189         movwf FSR
0096   08??           00190         movf temp,0
0097   0080           00191         movwf INDF ;Display_Data[j]=LCDcode[i]
0098   0A??           00192         incf buf_temp,1
0099   0B??           00193         decfsz counter,1
009A   2???           00194         goto nextASCII
                      00195 
009B   08??           00196         movf buf_temp,0
009C   3E10           00197         addlw .16 ;адрес позиций запятых (начиная с 17й позиции)
009D   2???           00198         call koma_set ;расставляем запятые
                      00199         
009E   08??           00200         movf simb_temp,0
009F   0084           00201         movwf FSR ;восстанавливаем FSR
00A0   0008           00202         return
                      00203 ;-----------------------------------------------------------------------
                      00204 ;установка запятых в зависимости от состояния переменной записанной
                      00205 ;в двух байтах начиная с адреса указанного в аккумуляторе
00A1                  00206 koma_set
00A1   ???? ????      00207         banksel temp
MPASM  5.51                     TM1621LCD.ASM   2-21-2018  11:21:32         PAGE  6


LOC  OBJECT CODE     LINE SOURCE TEXT
  VALUE

00A3   0084           00208         movwf FSR
00A4   0800           00209         movf INDF,0
00A5   00??           00210         movwf temp
00A6   0A84           00211         incf FSR,1
00A7   0800           00212         movf INDF,0
00A8   00??           00213         movwf temp2
                      00214 
00A9   30??           00215         movlw Display_Data ;изначально удаляем все запятые 
00AA   0084           00216         movwf FSR ;чтоб потом поставить в нужном месте
00AB   3010           00217         movlw .16
00AC   00??           00218         movwf counter
00AD                  00219 next_koma
00AD   1380           00220         bcf INDF, 7
00AE   0A84           00221         incf FSR,1
00AF   0B??           00222         decfsz counter,1
00B0   2???           00223         goto next_koma  
                      00224 
00B1                  00225 koma_set1
                      00226         ;точка у нас 7й бит кода символа поэтому проверяем koma и ставим ее если нужно
00B1   1B80           00227         btfsc temp,7
00B2   1780           00228         bsf Display_Data+.15,7
00B3   1B00           00229         btfsc temp,6
00B4   1780           00230         bsf Display_Data+.14,7
00B5   1A80           00231         btfsc temp,5
00B6   1780           00232         bsf Display_Data+.13,7
00B7   1A00           00233         btfsc temp,4
00B8   1780           00234         bsf Display_Data+.12,7
00B9   1980           00235         btfsc temp,3
00BA   1780           00236         bsf Display_Data+.11,7
00BB                  00237 koma_set2
00BB   1900           00238         btfsc temp,2
00BC   1780           00239         bsf Display_Data+.10,7
00BD   1880           00240         btfsc temp,1
00BE   1780           00241         bsf Display_Data+.9,7
00BF   1800           00242         btfsc temp,0
00C0   1780           00243         bsf Display_Data+.8,7
00C1   1B80           00244         btfsc temp2,7
00C2   1780           00245         bsf Display_Data+.7,7
00C3   1B00           00246         btfsc temp2,6
00C4   1780           00247         bsf Display_Data+.6,7
00C5                  00248 koma_set3
00C5   1A80           00249         btfsc temp2,5
00C6   1780           00250         bsf Display_Data+.5,7
00C7   1A00           00251         btfsc temp2,4
00C8   1780           00252         bsf Display_Data+.4,7
00C9   1980           00253         btfsc temp2,3
00CA   1780           00254         bsf Display_Data+.3,7
00CB   1900           00255         btfsc temp2,2
00CC   1780           00256         bsf Display_Data+.2,7
00CD   1880           00257         btfsc temp2,1
00CE   1780           00258         bsf Display_Data+.1,7
00CF   1800           00259         btfsc temp2,0
00D0   1780           00260         bsf Display_Data,7
MPASM  5.51                     TM1621LCD.ASM   2-21-2018  11:21:32         PAGE  7


LOC  OBJECT CODE     LINE SOURCE TEXT
  VALUE

00D1   0008           00261         return
                      00262 ;-----------------------------------------------------------------------
                      00263 ;- Установить запятую
                      00264 ;SetKoma(komaPos)
                      00265 ;KomaPos – разряд перед которым надо поставить запятую
                      00266 ;в аккумуляторе адрес области из двух байт с позициями запятых
00D2                  00267 SetKoma
00D2   ???? ????      00268         banksel buf_temp
00D4   00??           00269         movwf buf_temp
00D5   0804           00270         movf FSR,0 ;сохраняем FSR
00D6   00??           00271         movwf simb_temp
00D7   08??           00272         movf buf_temp,0
00D8   0084           00273         movwf FSR
00D9   ???? ????      00274         banksel KomaPos
00DB   08??           00275         movf KomaPos,0
00DC   3A01           00276         xorlw .1
00DD   1903           00277         btfsc STATUS,Z
00DE   1780           00278         bsf INDF,7
00DF   08??           00279         movf KomaPos,0
00E0   3A02           00280         xorlw .2
00E1   1903           00281         btfsc STATUS,Z
00E2   1700           00282         bsf INDF,6
00E3   08??           00283         movf KomaPos,0
00E4   3A03           00284         xorlw .3
00E5   1903           00285         btfsc STATUS,Z
00E6   1680           00286         bsf INDF,5
00E7   08??           00287         movf KomaPos,0
00E8   3A04           00288         xorlw .4
00E9   1903           00289         btfsc STATUS,Z
00EA   1600           00290         bsf INDF,4
00EB   08??           00291         movf KomaPos,0
00EC   3A05           00292         xorlw .5
00ED   1903           00293         btfsc STATUS,Z
00EE   1580           00294         bsf INDF,3
00EF   08??           00295         movf KomaPos,0
00F0   3A06           00296         xorlw .6
00F1   1903           00297         btfsc STATUS,Z
00F2   1500           00298         bsf INDF,2
00F3   08??           00299         movf KomaPos,0
00F4   3A07           00300         xorlw .7
00F5   1903           00301         btfsc STATUS,Z
00F6   1480           00302         bsf INDF,1
00F7   08??           00303         movf KomaPos,0
00F8   3A08           00304         xorlw .8
00F9   1903           00305         btfsc STATUS,Z
00FA   1400           00306         bsf INDF,0
00FB   0A84           00307         incf FSR,1
00FC   08??           00308         movf KomaPos,0
00FD   3A09           00309         xorlw .9
00FE   1903           00310         btfsc STATUS,Z
00FF   1780           00311         bsf INDF,7
0100   08??           00312         movf KomaPos,0
0101   3A0A           00313         xorlw .10
MPASM  5.51                     TM1621LCD.ASM   2-21-2018  11:21:32         PAGE  8


LOC  OBJECT CODE     LINE SOURCE TEXT
  VALUE

0102   1903           00314         btfsc STATUS,Z
0103   1700           00315         bsf INDF,6
0104   08??           00316         movf KomaPos,0
0105   3A0B           00317         xorlw .11
0106   1903           00318         btfsc STATUS,Z
0107   1680           00319         bsf INDF,5
0108   08??           00320         movf KomaPos,0
0109   3A0C           00321         xorlw .12
010A   1903           00322         btfsc STATUS,Z
010B   1600           00323         bsf INDF,4
010C   08??           00324         movf KomaPos,0
010D   3A0D           00325         xorlw .13
010E   1903           00326         btfsc STATUS,Z
010F   1580           00327         bsf INDF,3
0110   08??           00328         movf KomaPos,0
0111   3A0E           00329         xorlw .14
0112   1903           00330         btfsc STATUS,Z
0113   1500           00331         bsf INDF,2
0114   08??           00332         movf KomaPos,0
0115   3A0F           00333         xorlw .15
0116   1903           00334         btfsc STATUS,Z
0117   1480           00335         bsf INDF,1
0118   08??           00336         movf KomaPos,0
0119   3A10           00337         xorlw .16
011A   1903           00338         btfsc STATUS,Z
011B   1400           00339         bsf INDF,0
011C   08??           00340         movf simb_temp,0
011D   0084           00341         movwf FSR ;восстанавливаем FSR
011E   0008           00342         return
                      00343 ;-----------------------------------------------------------------------
                      00344 ;- Убрать запятую
                      00345 ;ClrKoma(komaPos)
                      00346 ;KomaPos – разряд перед которым надо убрать запятую
                      00347 ;в аккумуляторе адрес области из двух байт с позициями запятых
011F                  00348 ClrKoma
011F   ???? ????      00349         banksel buf_temp
0121   00??           00350         movwf buf_temp
0122   0804           00351         movf FSR,0 ;сохраняем FSR
0123   00??           00352         movwf simb_temp
0124   08??           00353         movf buf_temp,0
0125   0084           00354         movwf FSR
0126   ???? ????      00355         banksel KomaPos
0128   08??           00356         movf KomaPos,0
0129   3A01           00357         xorlw .1
012A   1903           00358         btfsc STATUS,Z
012B   1380           00359         bcf INDF,7
012C   08??           00360         movf KomaPos,0
012D   3A02           00361         xorlw .2
012E   1903           00362         btfsc STATUS,Z
012F   1300           00363         bcf INDF,6
0130   08??           00364         movf KomaPos,0
0131   3A03           00365         xorlw .3
0132   1903           00366         btfsc STATUS,Z
MPASM  5.51                     TM1621LCD.ASM   2-21-2018  11:21:32         PAGE  9


LOC  OBJECT CODE     LINE SOURCE TEXT
  VALUE

0133   1280           00367         bcf INDF,5
0134   08??           00368         movf KomaPos,0
0135   3A04           00369         xorlw .4
0136   1903           00370         btfsc STATUS,Z
0137   1200           00371         bcf INDF,4
0138   08??           00372         movf KomaPos,0
0139   3A05           00373         xorlw .5
013A   1903           00374         btfsc STATUS,Z
013B   1180           00375         bcf INDF,3
013C   08??           00376         movf KomaPos,0
013D   3A06           00377         xorlw .6
013E   1903           00378         btfsc STATUS,Z
013F   1100           00379         bcf INDF,2
0140   08??           00380         movf KomaPos,0
0141   3A07           00381         xorlw .7
0142   1903           00382         btfsc STATUS,Z
0143   1080           00383         bcf INDF,1
0144   08??           00384         movf KomaPos,0
0145   3A08           00385         xorlw .8
0146   1903           00386         btfsc STATUS,Z
0147   1000           00387         bcf INDF,0
0148   0A84           00388         incf FSR,1
0149   08??           00389         movf KomaPos,0
014A   3A09           00390         xorlw .9
014B   1903           00391         btfsc STATUS,Z
014C   1380           00392         bcf INDF,7
014D   08??           00393         movf KomaPos,0
014E   3A0A           00394         xorlw .10
014F   1903           00395         btfsc STATUS,Z
0150   1300           00396         bcf INDF,6
0151   08??           00397         movf KomaPos,0
0152   3A0B           00398         xorlw .11
0153   1903           00399         btfsc STATUS,Z
0154   1280           00400         bcf INDF,5
0155   08??           00401         movf KomaPos,0
0156   3A0C           00402         xorlw .12
0157   1903           00403         btfsc STATUS,Z
0158   1200           00404         bcf INDF,4
0159   08??           00405         movf KomaPos,0
015A   3A0D           00406         xorlw .13
015B   1903           00407         btfsc STATUS,Z
015C   1180           00408         bcf INDF,3
015D   08??           00409         movf KomaPos,0
015E   3A0E           00410         xorlw .14
015F   1903           00411         btfsc STATUS,Z
0160   1100           00412         bcf INDF,2
0161   08??           00413         movf KomaPos,0
0162   3A0F           00414         xorlw .15
0163   1903           00415         btfsc STATUS,Z
0164   1080           00416         bcf INDF,1
0165   08??           00417         movf KomaPos,0
0166   3A10           00418         xorlw .16
0167   1903           00419         btfsc STATUS,Z
MPASM  5.51                     TM1621LCD.ASM   2-21-2018  11:21:32         PAGE 10


LOC  OBJECT CODE     LINE SOURCE TEXT
  VALUE

0168   1000           00420         bcf INDF,0
0169   08??           00421         movf simb_temp,0
016A   0084           00422         movwf FSR ;восстанавливаем FSR
016B   0008           00423         return
                      00424 ;-----------------------------------------------------------------------
                      00425 ;- Вывести сообщение в первой строке
                      00426 ;PrintFirstStr(MsgAddr)
                      00427 ;MsgAddr – адрес начала области памяти где хранятся 5 символов в ASCII коде для вывода в первую строку
                      00428 ;- Вывести сообщение во второй строке
                      00429 ;адрес начала области 5 байт указываем в аккумуляторе
                      00430 ;буфер дисплея 16 байт начиная с Display_Data
016C                  00431 PrintFirstStr
                      00432 ;по сути тоже самое что и для всего дисплея 
                      00433 ;только для ускорения преобразовываем только ASCII коды первой строки
016C   ???? ????      00434         banksel buf_temp
016E   00??           00435         movwf buf_temp
016F   0804           00436         movf FSR,0 ;сохраняем FSR
0170   00??           00437         movwf simb_temp
                      00438 
0171   3005           00439         movlw .5
0172   00??           00440         movwf counter
0173                  00441 nextASCII_1
0173   08??           00442         movf buf_temp,0
0174   0084           00443         movwf FSR
0175   0800           00444         movf INDF,0 ;W=ASCII[i]
0176   ???? ???? 2??? 00445         lcall ASCII_to_LCDcode ;w=LCDcode[i]
0179   ???? ????      00446         pagesel $
017B   00??           00447         movwf temp
017C   300A           00448         movlw .10
017D   07??           00449         addwf counter,0 ;W=counter+10
017E   3E??           00450         addlw Display_Data ;W=[Display_Data]+counter+10 т.е. адрес ячейки буфера в кот. надо писать
017F   0084           00451         movwf FSR
0180   08??           00452         movf temp,0
0181   0080           00453         movwf INDF ;Display_Data[j]=LCDcode[i]
0182   0A??           00454         incf buf_temp,1
0183   0B??           00455         decfsz counter,1
0184   2???           00456         goto nextASCII_1
                      00457 
0185   08??           00458         movf buf_temp,0
0186   3E10           00459         addlw .16 ;адрес позиций запятых (начиная с 17й позиции)
0187   2???           00460         call koma_set ;расставляем запятые
                      00461 
0188   08??           00462         movf simb_temp,0
0189   0084           00463         movwf FSR ;восстанавливаем FSR
                      00464         
018A   30??           00465         movlw Display_Data
018B   2???           00466         call Data_to_LCD
018C   0008           00467         return
                      00468 ;-----------------------------------------------------------------------
                      00469 ;- Вывести сообщение в 2ой строке
                      00470 ;PrintSecondStr(MsgAddr)
                      00471 ;MsgAddr – адрес начала области памяти где хранятся 5 символов в ASCII коде для вывода в первую строку
                      00472 ;- Вывести сообщение во второй строке
MPASM  5.51                     TM1621LCD.ASM   2-21-2018  11:21:32         PAGE 11


LOC  OBJECT CODE     LINE SOURCE TEXT
  VALUE

                      00473 ;адрес начала области 5 байт указываем в аккумуляторе
                      00474 ;буфер дисплея 16 байт начиная с Display_Data
018D                  00475 PrintSecondStr
                      00476 ;по сути тоже самое что и для всего дисплея 
                      00477 ;только для ускорения преобразовываем только ASCII коды 2ой строки
018D   ???? ????      00478         banksel buf_temp
018F   00??           00479         movwf buf_temp
0190   0804           00480         movf FSR,0 ;сохраняем FSR
0191   00??           00481         movwf simb_temp
                      00482 
0192   3005           00483         movlw .5
0193   00??           00484         movwf counter
0194                  00485 nextASCII_2
0194   08??           00486         movf buf_temp,0
0195   0084           00487         movwf FSR
0196   0800           00488         movf INDF,0 ;W=ASCII[i]
0197   ???? ???? 2??? 00489         lcall ASCII_to_LCDcode ;w=LCDcode[i]
019A   ???? ????      00490         pagesel $
019C   00??           00491         movwf temp
019D   3005           00492         movlw .5
019E   07??           00493         addwf counter,0 ;W=counter+5
019F   3E??           00494         addlw Display_Data ;W=[Display_Data]+counter+5 т.е. адрес ячейки буфера в кот. надо писать
01A0   0084           00495         movwf FSR
01A1   08??           00496         movf temp,0
01A2   0080           00497         movwf INDF ;Display_Data[j]=LCDcode[i]
01A3   0A??           00498         incf buf_temp,1
01A4   0B??           00499         decfsz counter,1
01A5   2???           00500         goto nextASCII_2
                      00501 
01A6   08??           00502         movf buf_temp,0
01A7   3E0B           00503         addlw .11 ;адрес позиций запятых (начиная с 17й позиции относительно seg1_1)
01A8   2???           00504         call koma_set ;расставляем запятые
                      00505 
01A9   08??           00506         movf simb_temp,0
01AA   0084           00507         movwf FSR ;восстанавливаем FSR
                      00508         
01AB   30??           00509         movlw Display_Data
01AC   2???           00510         call Data_to_LCD
01AD   0008           00511         return
                      00512 ;-----------------------------------------------------------------------
                      00513 ;- Вывести сообщение в 3й строке
                      00514 ;PrintThirdStr(MsgAddr)
                      00515 ;MsgAddr – адрес начала области памяти где хранятся 6 символов в ASCII коде для вывода в первую строку
                      00516 ;- Вывести сообщение во второй строке
                      00517 ;адрес начала области 6 байт указываем в аккумуляторе
                      00518 ;буфер дисплея 16 байт начиная с Display_Data
01AE                  00519 PrintThirdStr
                      00520 ;по сути тоже самое что и для всего дисплея 
                      00521 ;только для ускорения преобразовываем только ASCII коды 3й строки
01AE   ???? ????      00522         banksel buf_temp
01B0   00??           00523         movwf buf_temp
01B1   0804           00524         movf FSR,0 ;сохраняем FSR
01B2   00??           00525         movwf simb_temp
MPASM  5.51                     TM1621LCD.ASM   2-21-2018  11:21:32         PAGE 12


LOC  OBJECT CODE     LINE SOURCE TEXT
  VALUE

                      00526 
01B3   3006           00527         movlw .6
01B4   00??           00528         movwf counter
01B5                  00529 nextASCII_3
01B5   08??           00530         movf buf_temp,0
01B6   0084           00531         movwf FSR
01B7   0800           00532         movf INDF,0 ;W=ASCII[i]
01B8   ???? ???? 2??? 00533         lcall ASCII_to_LCDcode ;w=LCDcode[i]
01BB   ???? ????      00534         pagesel $
01BD   00??           00535         movwf temp
01BE   03??           00536         decf counter,0 ;W=counter-1
01BF   3E??           00537         addlw Display_Data ;W=[Display_Data]+counter-1 т.е. адрес ячейки буфера в кот. надо писать
01C0   0084           00538         movwf FSR
01C1   08??           00539         movf temp,0
01C2   0080           00540         movwf INDF ;Display_Data[j]=LCDcode[i]
01C3   0A??           00541         incf buf_temp,1
01C4   0B??           00542         decfsz counter,1
01C5   2???           00543         goto nextASCII_3
                      00544 
01C6   08??           00545         movf buf_temp,0
01C7   3E06           00546         addlw .6 ;адрес позиций запятых (начиная с 17й позиции относительно seg1_1)
01C8   2???           00547         call koma_set ;расставляем запятые
                      00548 
01C9   08??           00549         movf simb_temp,0
01CA   0084           00550         movwf FSR ;восстанавливаем FSR
                      00551         
01CB   30??           00552         movlw Display_Data
01CC   2???           00553         call Data_to_LCD
01CD   0008           00554         return
                      00555 ;-----------------------------------------------------------------------
                      00556 ;- Вывести сообщение во все строки (16 символов)
                      00557 ;PrintMsg(MsgAddr)
                      00558 ;MsgAddr – адрес начала области памяти где хранятся 16 символов в ASCII коде для вывода на дисплей
                      00559 ;и 2 байта с позициями запятых
                      00560 ;адрес начала области 18 байт указываем в аккумуляторе
                      00561 ;буфер дисплея 16 байт начиная с Display_Data
01CE                  00562 PrintMsg
01CE   2???           00563         call Convert_ASCII_to_LCD
01CF   30??           00564         movlw Display_Data
01D0   2???           00565         call Data_to_LCD        
01D1   0008           00566         return
                      00567 ;-----------------------------------------------------------------------
01D2                  00568 SET_ZERO ;подача логического нуля на драйвер дисплея
                      00569         SET_BANK0
01D2   1283               M         bcf STATUS, RP0
01D3   1303               M         bcf STATUS, RP1 
01D4   1386           00570         bcf DATA_PIN ;DATA=0
01D5   0000           00571         nop
01D6   1686           00572         bsf WR ;WR=1
01D7   ???? ???? 2??? 00573         lcall pause_5us ;пауза 3 мкс
01DA   ???? ????      00574         pagesel $
                      00575         SET_BANK0
01DC   1283               M         bcf STATUS, RP0
MPASM  5.51                     TM1621LCD.ASM   2-21-2018  11:21:32         PAGE 13


LOC  OBJECT CODE     LINE SOURCE TEXT
  VALUE

01DD   1303               M         bcf STATUS, RP1 
01DE   1286           00576         bcf WR ;WR=0
01DF   1386           00577         bcf DATA_PIN ;DATA=0
01E0   ???? ???? 2??? 00578         lcall pause_5us ;пауза 3 мкс
01E3   ???? ????      00579         pagesel $
01E5   0008           00580         return
                      00581 ;--------------------------------------------------------------------------
01E6                  00582 SET_ONE ;подача логической единицы на драйвер дисплея
                      00583         SET_BANK0
01E6   1283               M         bcf STATUS, RP0
01E7   1303               M         bcf STATUS, RP1 
01E8   1786           00584         bsf DATA_PIN ;DATA=1
01E9   0000           00585         nop
01EA   1686           00586         bsf WR ;WR=1
01EB   ???? ???? 2??? 00587         lcall pause_5us ;пауза 3 мкс
01EE   ???? ????      00588         pagesel $
                      00589         SET_BANK0
01F0   1283               M         bcf STATUS, RP0
01F1   1303               M         bcf STATUS, RP1 
01F2   1286           00590         bcf WR ;WR=0
01F3   1386           00591         bcf DATA_PIN ;DATA=0
01F4   ???? ???? 2??? 00592         lcall pause_5us ;пауза 3 мкс
01F7   ???? ????      00593         pagesel $
01F9   0008           00594         return
                      00595 ;--------------------------------------------------------------------------
01FA                  00596 WRITE ;команда драйвера дисплея (запись данных) 101
                      00597         SET_BANK0
01FA   1283               M         bcf STATUS, RP0
01FB   1303               M         bcf STATUS, RP1 
01FC   1206           00598         bcf CS ;CS=0
01FD   ???? ???? 2??? 00599         lcall pause_5us ;пауза 3 мкс
0200   ???? ????      00600         pagesel $
0202   2???           00601         call SET_ONE ;подача логической единицы на драйвер дисплея
0203   2???           00602         call SET_ZERO ;подача логического нуля на драйвер дисплея
0204   2???           00603         call SET_ONE ;подача логической единицы на драйвер дисплея
0205   0008           00604         return
                      00605 ;--------------------------------------------------------------------------
0206                  00606 COMMAND;команда драйвера дисплея (команда кправления) 100
0206   1206           00607         bcf CS ;CS=0
0207   2???           00608         call pause_5us ;пауза 3 мкс
0208   2???           00609         call SET_ONE ;подача логической единицы на драйвер дисплея
0209   2???           00610         call SET_ZERO ;подача логического нуля на драйвер дисплея
020A   2???           00611         call SET_ZERO ;подача логического нуля на драйвер дисплея
020B   0008           00612         return
                      00613 ;--------------------------------------------------------------------------
020C                  00614 TONE4K ;команда TONE4K согласно документации на драйвер 100 010000000
020C   2???           00615         call COMMAND;команда драйвера дисплея (команда управления) 100
020D   2???           00616         call SET_ZERO ;подача логического нуля на драйвер дисплея
020E   2???           00617         call SET_ONE ;подача логической единицы на драйвер дисплея
020F   2???           00618         call SET_ZERO ;подача логического нуля на драйвер дисплея
0210   2???           00619         call SET_ZERO ;подача логического нуля на драйвер дисплея
0211   2???           00620         call SET_ZERO ;подача логического нуля на драйвер дисплея
0212   2???           00621         call SET_ZERO ;подача логического нуля на драйвер дисплея
MPASM  5.51                     TM1621LCD.ASM   2-21-2018  11:21:32         PAGE 14


LOC  OBJECT CODE     LINE SOURCE TEXT
  VALUE

0213   2???           00622         call SET_ZERO ;подача логического нуля на драйвер дисплея
0214   2???           00623         call SET_ZERO ;подача логического нуля на драйвер дисплея
0215   2???           00624         call SET_ZERO ;подача логического нуля на драйвер дисплея
0216   1606           00625         bsf CS ;CS=1
0217   2???           00626         call pause_5us ;пауза 3 мкс
0218   0008           00627         return
                      00628 ;--------------------------------------------------------------------------
0219                  00629 TNORMAL ;команда TNORMAL согласно документации на драйвер 100 111000111
0219   2???           00630         call COMMAND;команда драйвера дисплея (команда управления) 100
021A   2???           00631         call SET_ONE ;подача логической единицы на драйвер дисплея
021B   2???           00632         call SET_ONE ;подача логической единицы на драйвер дисплея
021C   2???           00633         call SET_ONE ;подача логической единицы на драйвер дисплея
021D   2???           00634         call SET_ZERO ;подача логического нуля на драйвер дисплея
021E   2???           00635         call SET_ZERO ;подача логического нуля на драйвер дисплея
021F   2???           00636         call SET_ZERO ;подача логического нуля на драйвер дисплея
0220   2???           00637         call SET_ONE ;подача логической единицы на драйвер дисплея
0221   2???           00638         call SET_ONE ;подача логической единицы на драйвер дисплея
0222   2???           00639         call SET_ONE ;подача логической единицы на драйвер дисплея
0223   1606           00640         bsf CS ;CS=1
0224   2???           00641         call pause_5us ;пауза 3 мкс
0225   0008           00642         return
                      00643 ;--------------------------------------------------------------------------
0226                  00644 SYS_EN ;команда SYS EN согласно документации на драйвер 100 000000011
0226   2???           00645         call COMMAND;команда драйвера дисплея (команда управления) 100
0227   ???? ????      00646         banksel counter
0229   3007           00647         movlw .7
022A   00??           00648         movwf counter
022B                  00649 send_zero_1
022B   2???           00650         call SET_ZERO ;подача логического нуля на драйвер дисплея
022C   ???? ????      00651         banksel counter
022E   0B??           00652         decfsz counter,1
022F   2???           00653         goto send_zero_1        
0230   2???           00654         call SET_ONE ;подача логической единицы на драйвер дисплея
0231   2???           00655         call SET_ONE ;подача логической единицы на драйвер дисплея
                      00656         SET_BANK0
0232   1283               M         bcf STATUS, RP0
0233   1303               M         bcf STATUS, RP1 
0234   1606           00657         bsf CS ;CS=1
0235   ???? ???? 2??? 00658         lcall pause_5us ;пауза 3 мкс
0238   ???? ????      00659         pagesel $       
023A   0008           00660         return
                      00661 ;--------------------------------------------------------------------------
023B                  00662 RC_256K ;команда RC_256K согласно документации на драйвер 100 000110000
023B   2???           00663         call COMMAND;команда драйвера дисплея (команда управления) 100
023C   2???           00664         call SET_ZERO ;подача логического нуля на драйвер дисплея
023D   2???           00665         call SET_ZERO ;подача логического нуля на драйвер дисплея
023E   2???           00666         call SET_ZERO ;подача логического нуля на драйвер дисплея
023F   2???           00667         call SET_ONE ;подача логической единицы на драйвер дисплея
0240   2???           00668         call SET_ONE ;подача логической единицы на драйвер дисплея
0241   2???           00669         call SET_ZERO ;подача логического нуля на драйвер дисплея
0242   2???           00670         call SET_ZERO ;подача логического нуля на драйвер дисплея
0243   2???           00671         call SET_ZERO ;подача логического нуля на драйвер дисплея
0244   2???           00672         call SET_ZERO ;подача логического нуля на драйвер дисплея
MPASM  5.51                     TM1621LCD.ASM   2-21-2018  11:21:32         PAGE 15


LOC  OBJECT CODE     LINE SOURCE TEXT
  VALUE

                      00673         SET_BANK0
0245   1283               M         bcf STATUS, RP0
0246   1303               M         bcf STATUS, RP1 
0247   1606           00674         bsf CS ;CS=1
0248   ???? ???? 2??? 00675         lcall pause_5us ;пауза 3 мкс
024B   ???? ????      00676         pagesel $
024D   0008           00677         return
                      00678 ;--------------------------------------------------------------------------
024E                  00679 BIAS_1_3 ;команда BIAS ab=10:4 LCD 1/3 согласно документации на драйвер 100 001010011
024E   2???           00680         call COMMAND;команда драйвера дисплея (команда управления) 100
024F   2???           00681         call SET_ZERO ;подача логического нуля на драйвер дисплея
0250   2???           00682         call SET_ZERO ;подача логического нуля на драйвер дисплея
0251   2???           00683         call SET_ONE ;подача логической единицы на драйвер дисплея
0252   2???           00684         call SET_ZERO ;подача логического нуля на драйвер дисплея
0253   2???           00685         call SET_ONE ;подача логической единицы на драйвер дисплея
0254   2???           00686         call SET_ZERO ;подача логического нуля на драйвер дисплея
0255   2???           00687         call SET_ZERO ;подача логического нуля на драйвер дисплея
0256   2???           00688         call SET_ONE ;подача логической единицы на драйвер дисплея
0257   2???           00689         call SET_ONE ;подача логической единицы на драйвер дисплея
                      00690         SET_BANK0
0258   1283               M         bcf STATUS, RP0
0259   1303               M         bcf STATUS, RP1 
025A   1606           00691         bsf CS ;CS=1
025B   ???? ???? 2??? 00692         lcall pause_5us ;пауза 3 мкс
025E   ???? ????      00693         pagesel $       
0260   0008           00694         return
                      00695 ;--------------------------------------------------------------------------
0261                  00696 LCD_OFF ;команда LCD OFF согласно документации на драйвер 100 000000100
0261   2???           00697         call COMMAND;команда драйвера дисплея (команда управления) 100
0262   ???? ????      00698         banksel counter
0264   3006           00699         movlw .6
0265   00??           00700         movwf counter
0266                  00701 send_zero_2
0266   2???           00702         call SET_ZERO ;подача логического нуля на драйвер дисплея
0267   ???? ????      00703         banksel counter
0269   0B??           00704         decfsz counter,1
026A   2???           00705         goto send_zero_2        
026B   2???           00706         call SET_ONE ;подача логической единицы на драйвер дисплея
026C   2???           00707         call SET_ZERO ;подача логического нуля на драйвер дисплея
026D   2???           00708         call SET_ZERO ;подача логического нуля на драйвер дисплея
                      00709         SET_BANK0
026E   1283               M         bcf STATUS, RP0
026F   1303               M         bcf STATUS, RP1 
0270   1606           00710         bsf CS ;CS=1
0271   ???? ???? 2??? 00711         lcall pause_5us ;пауза 3 мкс
0274   ???? ????      00712         pagesel $       
0276   0008           00713         return
                      00714 ;--------------------------------------------------------------------------
0277                  00715 LCD_ON ;команда LCD ON согласно документации на драйвер 100 000000111
0277   2???           00716         call COMMAND;команда драйвера дисплея (команда управления) 100
0278   ???? ????      00717         banksel counter
027A   3006           00718         movlw .6
027B   00??           00719         movwf counter
MPASM  5.51                     TM1621LCD.ASM   2-21-2018  11:21:32         PAGE 16


LOC  OBJECT CODE     LINE SOURCE TEXT
  VALUE

027C                  00720 send_zero_3
027C   2???           00721         call SET_ZERO ;подача логического нуля на драйвер дисплея
027D   ???? ????      00722         banksel counter
027F   0B??           00723         decfsz counter,1
0280   2???           00724         goto send_zero_3        
0281   2???           00725         call SET_ONE ;подача логической единицы на драйвер дисплея
0282   2???           00726         call SET_ONE ;подача логической единицы на драйвер дисплея
0283   2???           00727         call SET_ONE ;подача логической единицы на драйвер дисплея
                      00728         SET_BANK0
0284   1283               M         bcf STATUS, RP0
0285   1303               M         bcf STATUS, RP1 
0286   1606           00729         bsf CS ;CS=1
0287   ???? ???? 2??? 00730         lcall pause_5us ;пауза 3 мкс
028A   ???? ????      00731         pagesel $       
028C   0008           00732         return
                      00733 ;-----------------------------------------------------------------------------
                      00734 ;- Преобразовать символ в коде ASCII в код дисплея
                      00735 ;ASCII_to_LCDcode(ASCIIcode):LCDcode
                      00736 ;ASCIIcode - символ в коде ASCII
                      00737 ;LCDcode - символ в коде дисплея
                      00738 ;входные данные ASCIIcode подается в аккумулятора 
                      00739 ;и выходные данные LCDcode выдаются в аккумуляторе
028D                  00740 ASCII_to_LCDcode
                      00741 ;поочередно сравниваем символы
028D   ???? ????      00742         banksel temp
028F   00??           00743         movwf temp
0290   3A30           00744         xorlw '0'
0291   1903           00745         btfsc STATUS,Z
0292   347D           00746         retlw simb0
                      00747 
0293   08??           00748         movf temp,0
0294   3A31           00749         xorlw '1'
0295   1903           00750         btfsc STATUS,Z  
0296   3460           00751         retlw simb1             
                      00752 
0297   08??           00753         movf temp,0
0298   3A32           00754         xorlw '2'
0299   1903           00755         btfsc STATUS,Z  
029A   343E           00756         retlw simb2
                      00757         
029B   08??           00758         movf temp,0
029C   3A33           00759         xorlw '3'
029D   1903           00760         btfsc STATUS,Z  
029E   347A           00761         retlw simb3
                      00762 
029F   08??           00763         movf temp,0
02A0   3A34           00764         xorlw '4'
02A1   1903           00765         btfsc STATUS,Z  
02A2   3463           00766         retlw simb4     
                      00767 
02A3   08??           00768         movf temp,0
02A4   3A35           00769         xorlw '5'
02A5   1903           00770         btfsc STATUS,Z  
MPASM  5.51                     TM1621LCD.ASM   2-21-2018  11:21:32         PAGE 17


LOC  OBJECT CODE     LINE SOURCE TEXT
  VALUE

02A6   345B           00771         retlw simb5             
                      00772 
02A7   08??           00773         movf temp,0
02A8   3A36           00774         xorlw '6'
02A9   1903           00775         btfsc STATUS,Z  
02AA   345F           00776         retlw simb6     
                      00777 
02AB   08??           00778         movf temp,0
02AC   3A37           00779         xorlw '7'
02AD   1903           00780         btfsc STATUS,Z  
02AE   3470           00781         retlw simb7     
                      00782 
02AF   08??           00783         movf temp,0
02B0   3A38           00784         xorlw '8'
02B1   1903           00785         btfsc STATUS,Z  
02B2   347F           00786         retlw simb8     
                      00787 
02B3   08??           00788         movf temp,0
02B4   3A39           00789         xorlw '9'
02B5   1903           00790         btfsc STATUS,Z  
02B6   347B           00791         retlw simb9
                      00792 
02B7   08??           00793         movf temp,0
02B8   3A41           00794         xorlw 'A'
02B9   1903           00795         btfsc STATUS,Z  
02BA   3477           00796         retlw simbA     
                      00797 
02BB   08??           00798         movf temp,0
02BC   3A62           00799         xorlw 'b'
02BD   1903           00800         btfsc STATUS,Z  
02BE   344F           00801         retlw simbb     
                      00802 
02BF   08??           00803         movf temp,0
02C0   3A43           00804         xorlw 'C'
02C1   1903           00805         btfsc STATUS,Z  
02C2   341D           00806         retlw simbC
                      00807 
02C3   08??           00808         movf temp,0
02C4   3A64           00809         xorlw 'd'
02C5   1903           00810         btfsc STATUS,Z  
02C6   346E           00811         retlw simbd
                      00812 
02C7   08??           00813         movf temp,0
02C8   3A45           00814         xorlw 'E'
02C9   1903           00815         btfsc STATUS,Z  
02CA   341F           00816         retlw simbE     
                      00817 
02CB   08??           00818         movf temp,0
02CC   3A46           00819         xorlw 'F'
02CD   1903           00820         btfsc STATUS,Z  
02CE   3417           00821         retlw simbF
                      00822 
02CF   08??           00823         movf temp,0
MPASM  5.51                     TM1621LCD.ASM   2-21-2018  11:21:32         PAGE 18


LOC  OBJECT CODE     LINE SOURCE TEXT
  VALUE

02D0   3A47           00824         xorlw 'G'
02D1   1903           00825         btfsc STATUS,Z  
02D2   345D           00826         retlw simbG
                      00827 
02D3   08??           00828         movf temp,0
02D4   3A48           00829         xorlw 'H'
02D5   1903           00830         btfsc STATUS,Z  
02D6   3467           00831         retlw simbH
                      00832 
02D7   08??           00833         movf temp,0
02D8   3A4A           00834         xorlw 'J'
02D9   1903           00835         btfsc STATUS,Z  
02DA   346C           00836         retlw simbJ
                      00837 
02DB   08??           00838         movf temp,0
02DC   3A4C           00839         xorlw 'L'
02DD   1903           00840         btfsc STATUS,Z  
02DE   340D           00841         retlw simbL
                      00842 
02DF   08??           00843         movf temp,0
02E0   3A6E           00844         xorlw 'n'
02E1   1903           00845         btfsc STATUS,Z  
02E2   3446           00846         retlw simbn
                      00847 
02E3   08??           00848         movf temp,0
02E4   3A4F           00849         xorlw 'O'
02E5   1903           00850         btfsc STATUS,Z  
02E6   347D           00851         retlw simb0
                      00852 
02E7   08??           00853         movf temp,0
02E8   3A70           00854         xorlw 'p'
02E9   1903           00855         btfsc STATUS,Z  
02EA   3437           00856         retlw simbP
                      00857 
02EB   08??           00858         movf temp,0
02EC   3A72           00859         xorlw 'r'
02ED   1903           00860         btfsc STATUS,Z  
02EE   3406           00861         retlw simbr
                      00862 
02EF   08??           00863         movf temp,0
02F0   3A53           00864         xorlw 'S'
02F1   1903           00865         btfsc STATUS,Z  
02F2   345B           00866         retlw simb5
                      00867 
02F3   08??           00868         movf temp,0
02F4   3A74           00869         xorlw 't'
02F5   1903           00870         btfsc STATUS,Z  
02F6   340F           00871         retlw simbt
                      00872 
02F7   08??           00873         movf temp,0
02F8   3A55           00874         xorlw 'U'
02F9   1903           00875         btfsc STATUS,Z  
02FA   346D           00876         retlw simbU
MPASM  5.51                     TM1621LCD.ASM   2-21-2018  11:21:32         PAGE 19


LOC  OBJECT CODE     LINE SOURCE TEXT
  VALUE

                      00877 
02FB   08??           00878         movf temp,0
02FC   3A59           00879         xorlw 'Y'
02FD   1903           00880         btfsc STATUS,Z  
02FE   346B           00881         retlw simbY
                      00882 
02FF   08??           00883         movf temp,0
0300   3A2D           00884         xorlw '-'
0301   1903           00885         btfsc STATUS,Z  
0302   3402           00886         retlw simbmin
                      00887 
0303   08??           00888         movf temp,0
0304   3A20           00889         xorlw ' '
0305   1903           00890         btfsc STATUS,Z  
0306   3400           00891         retlw empty
0307   0008           00892         return
                      00893 ;---------------------------------------------------------------------------
                      00894         end
MPASM  5.51                     TM1621LCD.ASM   2-21-2018  11:21:32         PAGE 20


SYMBOL TABLE
  LABEL                             VALUE 

ABDEN                             00000000
ABDOVF                            00000007
ACKDT                             00000005
ACKEN                             00000004
ACKSTAT                           00000006
ADCON0                            0000001F
ADCON1                            0000009F
ADCS0                             00000006
ADCS1                             00000007
ADDEN                             00000003
ADFM                              00000007
ADIE                              00000006
ADIF                              00000006
ADON                              00000000
ADRESH                            0000001E
ADRESL                            0000009E
ANS0                              00000000
ANS1                              00000001
ANS10                             00000002
ANS11                             00000003
ANS12                             00000004
ANS13                             00000005
ANS2                              00000002
ANS3                              00000003
ANS4                              00000004
ANS5                              00000005
ANS6                              00000006
ANS7                              00000007
ANS8                              00000000
ANS9                              00000001
ANSEL                             00000188
ANSELH                            00000189
ASCII_to_LCDcode                  0000028D
BAUDCTL                           00000187
BCLIE                             00000003
BCLIF                             00000003
BF                                00000000
BIAS_1_3                          0000024E
BRG0                              00000000
BRG1                              00000001
BRG10                             00000002
BRG11                             00000003
BRG12                             00000004
BRG13                             00000005
BRG14                             00000006
BRG15                             00000007
BRG16                             00000003
BRG2                              00000002
BRG3                              00000003
BRG4                              00000004
BRG5                              00000005
BRG6                              00000006
BRG7                              00000007
MPASM  5.51                     TM1621LCD.ASM   2-21-2018  11:21:32         PAGE 21


SYMBOL TABLE
  LABEL                             VALUE 

BRG8                              00000000
BRG9                              00000001
BRGH                              00000002
C                                 00000000
C1CH0                             00000000
C1CH1                             00000001
C1IE                              00000005
C1IF                              00000005
C1OE                              00000005
C1ON                              00000007
C1OUT                             00000006
C1POL                             00000004
C1R                               00000002
C1RSEL                            00000005
C1SEN                             00000005
C2CH0                             00000000
C2CH1                             00000001
C2IE                              00000006
C2IF                              00000006
C2OE                              00000005
C2ON                              00000007
C2OUT                             00000006
C2POL                             00000004
C2R                               00000002
C2REN                             00000004
C2RSEL                            00000004
C2SYNC                            00000000
CCP1CON                           00000017
CCP1IE                            00000002
CCP1IF                            00000002
CCP1M0                            00000000
CCP1M1                            00000001
CCP1M2                            00000002
CCP1M3                            00000003
CCP1X                             00000005
CCP1Y                             00000004
CCP2CON                           0000001D
CCP2IE                            00000000
CCP2IF                            00000000
CCP2M0                            00000000
CCP2M1                            00000001
CCP2M2                            00000002
CCP2M3                            00000003
CCP2X                             00000005
CCP2Y                             00000004
CCPR1                             00000015
CCPR1H                            00000016
CCPR1L                            00000015
CCPR2                             0000001B
CCPR2H                            0000001C
CCPR2L                            0000001B
CHS0                              00000002
CHS1                              00000003
MPASM  5.51                     TM1621LCD.ASM   2-21-2018  11:21:32         PAGE 22


SYMBOL TABLE
  LABEL                             VALUE 

CHS2                              00000004
CHS3                              00000005
CKE                               00000006
CKP                               00000004
CM1CON0                           00000107
CM2CON0                           00000108
CM2CON1                           00000109
COMMAND                           00000206
CREN                              00000004
CS                                PORTB,4
CSRC                              00000007
ClrKoma                           0000011F
Convert_ASCII_to_LCD              00000083
D                                 00000005
DATA_ADDRESS                      00000005
DATA_PIN                          PORTB,7
DC                                00000001
DC1B0                             00000004
DC1B1                             00000005
DC2B0                             00000004
DC2B1                             00000005
D_A                               00000005
D_NOT_A                           00000005
Data_to_LCD                       00000044
Display_Data                      00000001
ECCPAS                            0000009C
ECCPAS0                           00000004
ECCPAS1                           00000005
ECCPAS2                           00000006
ECCPASE                           00000007
EEADR                             0000010D
EEADRH                            0000010F
EECON1                            0000018C
EECON2                            0000018D
EEDAT                             0000010C
EEDATA                            0000010C
EEDATH                            0000010E
EEIE                              00000004
EEIF                              00000004
EEPGD                             00000007
F                                 00000001
FERR                              00000002
FSR                               00000004
FVREN                             00000000
GCEN                              00000007
GIE                               00000007
GO                                00000001
GO_DONE                           00000001
GO_NOT_DONE                       00000001
HTS                               00000002
I2C_DATA                          00000005
I2C_READ                          00000002
I2C_START                         00000003
MPASM  5.51                     TM1621LCD.ASM   2-21-2018  11:21:32         PAGE 23


SYMBOL TABLE
  LABEL                             VALUE 

I2C_STOP                          00000004
INDF                              00000000
INTCON                            0000000B
INTE                              00000004
INTEDG                            00000006
INTF                              00000001
IOCB                              00000096
IOCB0                             00000000
IOCB1                             00000001
IOCB2                             00000002
IOCB3                             00000003
IOCB4                             00000004
IOCB5                             00000005
IOCB6                             00000006
IOCB7                             00000007
IRCF0                             00000004
IRCF1                             00000005
IRCF2                             00000006
IRP                               00000007
KomaPos                           00000011
LCD_Data_Duplicate                0000001D
LCD_OFF                           00000261
LCD_ON                            00000277
LTS                               00000001
MC1OUT                            00000007
MC2OUT                            00000006
MSK                               00000093
MSK0                              00000000
MSK1                              00000001
MSK2                              00000002
MSK3                              00000003
MSK4                              00000004
MSK5                              00000005
MSK6                              00000006
MSK7                              00000007
NOT_A                             00000005
NOT_ADDRESS                       00000005
NOT_BO                            00000000
NOT_BOR                           00000000
NOT_DONE                          00000001
NOT_PD                            00000003
NOT_POR                           00000001
NOT_RBPU                          00000007
NOT_RC8                           00000006
NOT_T1SYNC                        00000002
NOT_TO                            00000004
NOT_TX8                           00000006
NOT_W                             00000002
NOT_WRITE                         00000002
OERR                              00000001
OPTION_REG                        00000081
OSCCON                            0000008F
OSCTUNE                           00000090
MPASM  5.51                     TM1621LCD.ASM   2-21-2018  11:21:32         PAGE 24


SYMBOL TABLE
  LABEL                             VALUE 

OSFIE                             00000007
OSFIF                             00000007
OSTS                              00000003
P                                 00000004
P1M0                              00000006
P1M1                              00000007
PCL                               00000002
PCLATH                            0000000A
PCON                              0000008E
PDC0                              00000000
PDC1                              00000001
PDC2                              00000002
PDC3                              00000003
PDC4                              00000004
PDC5                              00000005
PDC6                              00000006
PEIE                              00000006
PEN                               00000002
PIE1                              0000008C
PIE2                              0000008D
PIR1                              0000000C
PIR2                              0000000D
PORTA                             00000005
PORTB                             00000006
PORTC                             00000007
PORTD                             00000008
PORTE                             00000009
PR2                               00000092
PRSEN                             00000007
PS0                               00000000
PS1                               00000001
PS2                               00000002
PSA                               00000003
PSSAC0                            00000002
PSSAC1                            00000003
PSSBD0                            00000000
PSSBD1                            00000001
PSTRCON                           0000009D
PULSR                             00000002
PULSS                             00000003
PWM1CON                           0000009B
PrintFirstStr                     0000016C
PrintMsg                          000001CE
PrintSecondStr                    0000018D
PrintSimb                         00000070
PrintThirdStr                     000001AE
R                                 00000002
RA0                               00000000
RA1                               00000001
RA2                               00000002
RA3                               00000003
RA4                               00000004
RA5                               00000005
MPASM  5.51                     TM1621LCD.ASM   2-21-2018  11:21:32         PAGE 25


SYMBOL TABLE
  LABEL                             VALUE 

RA6                               00000006
RA7                               00000007
RB0                               00000000
RB1                               00000001
RB2                               00000002
RB3                               00000003
RB4                               00000004
RB5                               00000005
RB6                               00000006
RB7                               00000007
RBIE                              00000003
RBIF                              00000000
RC0                               00000000
RC1                               00000001
RC2                               00000002
RC3                               00000003
RC4                               00000004
RC5                               00000005
RC6                               00000006
RC7                               00000007
RC8_9                             00000006
RC9                               00000006
RCD8                              00000000
RCEN                              00000003
RCIDL                             00000006
RCIE                              00000005
RCIF                              00000005
RCREG                             0000001A
RCSTA                             00000018
RC_256K                           0000023B
RD                                00000000
RD0                               00000000
RD1                               00000001
RD2                               00000002
RD3                               00000003
RD4                               00000004
RD5                               00000005
RD6                               00000006
RD7                               00000007
RE0                               00000000
RE1                               00000001
RE2                               00000002
RE3                               00000003
READ_WRITE                        00000002
RP0                               00000005
RP1                               00000006
RSEN                              00000001
RX9                               00000006
RX9D                              00000000
R_NOT_W                           00000002
R_W                               00000002
S                                 00000003
SBOREN                            00000004
MPASM  5.51                     TM1621LCD.ASM   2-21-2018  11:21:32         PAGE 26


SYMBOL TABLE
  LABEL                             VALUE 

SCKP                              00000004
SCS                               00000000
SEN                               00000000
SENDB                             00000003
SET_BANK0                         
SET_ONE                           000001E6
SET_ZERO                          000001D2
SMP                               00000007
SPBRG                             00000099
SPBRGH                            0000009A
SPEN                              00000007
SR0                               00000006
SR1                               00000007
SRCON                             00000185
SREN                              00000005
SSPADD                            00000093
SSPBUF                            00000013
SSPCON                            00000014
SSPCON2                           00000091
SSPEN                             00000005
SSPIE                             00000003
SSPIF                             00000003
SSPM0                             00000000
SSPM1                             00000001
SSPM2                             00000002
SSPM3                             00000003
SSPMSK                            00000093
SSPOV                             00000006
SSPSTAT                           00000094
STATUS                            00000003
STRA                              00000000
STRB                              00000001
STRC                              00000002
STRD                              00000003
STRSYNC                           00000004
SWDTEN                            00000000
SYNC                              00000004
SYS_EN                            00000226
SetKoma                           000000D2
T0CS                              00000005
T0IE                              00000005
T0IF                              00000002
T0SE                              00000004
T1CKPS0                           00000004
T1CKPS1                           00000005
T1CON                             00000010
T1GINV                            00000007
T1GIV                             00000007
T1GSS                             00000001
T1INSYNC                          00000002
T1OSCEN                           00000003
T1SYNC                            00000002
T2CKPS0                           00000000
MPASM  5.51                     TM1621LCD.ASM   2-21-2018  11:21:32         PAGE 27


SYMBOL TABLE
  LABEL                             VALUE 

T2CKPS1                           00000001
T2CON                             00000012
TMR0                              00000001
TMR0IE                            00000005
TMR0IF                            00000002
TMR1                              0000000E
TMR1CS                            00000001
TMR1GE                            00000006
TMR1H                             0000000F
TMR1IE                            00000000
TMR1IF                            00000000
TMR1L                             0000000E
TMR1ON                            00000000
TMR2                              00000011
TMR2IE                            00000001
TMR2IF                            00000001
TMR2ON                            00000002
TNORMAL                           00000219
TONE4K                            0000020C
TOUTPS0                           00000003
TOUTPS1                           00000004
TOUTPS2                           00000005
TOUTPS3                           00000006
TRISA                             00000085
TRISA0                            00000000
TRISA1                            00000001
TRISA2                            00000002
TRISA3                            00000003
TRISA4                            00000004
TRISA5                            00000005
TRISA6                            00000006
TRISA7                            00000007
TRISB                             00000086
TRISB0                            00000000
TRISB1                            00000001
TRISB2                            00000002
TRISB3                            00000003
TRISB4                            00000004
TRISB5                            00000005
TRISB6                            00000006
TRISB7                            00000007
TRISC                             00000087
TRISC0                            00000000
TRISC1                            00000001
TRISC2                            00000002
TRISC3                            00000003
TRISC4                            00000004
TRISC5                            00000005
TRISC6                            00000006
TRISC7                            00000007
TRISD                             00000088
TRISD0                            00000000
TRISD1                            00000001
MPASM  5.51                     TM1621LCD.ASM   2-21-2018  11:21:32         PAGE 28


SYMBOL TABLE
  LABEL                             VALUE 

TRISD2                            00000002
TRISD3                            00000003
TRISD4                            00000004
TRISD5                            00000005
TRISD6                            00000006
TRISD7                            00000007
TRISE                             00000089
TRISE0                            00000000
TRISE1                            00000001
TRISE2                            00000002
TRISE3                            00000003
TRMT                              00000001
TUN0                              00000000
TUN1                              00000001
TUN2                              00000002
TUN3                              00000003
TUN4                              00000004
TX8_9                             00000006
TX9                               00000006
TX9D                              00000000
TXD8                              00000000
TXEN                              00000005
TXIE                              00000004
TXIF                              00000004
TXREG                             00000019
TXSTA                             00000098
UA                                00000001
ULPWUE                            00000005
ULPWUIE                           00000002
ULPWUIF                           00000002
VCFG0                             00000004
VCFG1                             00000005
VR0                               00000000
VR1                               00000001
VR2                               00000002
VR3                               00000003
VRCON                             00000097
VREN                              00000007
VROE                              00000006
VRR                               00000005
VRSS                              00000004
W                                 00000000
WCOL                              00000007
WDTCON                            00000105
WDTPS0                            00000001
WDTPS1                            00000002
WDTPS2                            00000003
WDTPS3                            00000004
WPUB                              00000095
WPUB0                             00000000
WPUB1                             00000001
WPUB2                             00000002
WPUB3                             00000003
MPASM  5.51                     TM1621LCD.ASM   2-21-2018  11:21:32         PAGE 29


SYMBOL TABLE
  LABEL                             VALUE 

WPUB4                             00000004
WPUB5                             00000005
WPUB6                             00000006
WPUB7                             00000007
WR                                PORTB,5
WREN                              00000002
WRERR                             00000003
WRITE                             000001FA
WUE                               00000001
Z                                 00000002
_.code_002C                       0000002C
_.code_006B                       0000006B
_.code_0073                       00000073
_.code_0090                       00000090
_.code_0179                       00000179
_.code_019A                       0000019A
_.code_01BB                       000001BB
_.code_01DA                       000001DA
_.code_01E3                       000001E3
_.code_01EE                       000001EE
_.code_01F7                       000001F7
_.code_0200                       00000200
_.code_0238                       00000238
_.code_024B                       0000024B
_.code_025E                       0000025E
_.code_0274                       00000274
_.code_028A                       0000028A
_BOR21V                           00003EFF
_BOR40V                           00003FFF
_BOR4V_BOR21V                     00003EFF
_BOR4V_BOR40V                     00003FFF
_BOREN_NSLEEP                     00003EFF
_BOREN_OFF                        00003CFF
_BOREN_ON                         00003FFF
_BOREN_SBODEN                     00003DFF
_BOR_NSLEEP                       00003EFF
_BOR_OFF                          00003CFF
_BOR_ON                           00003FFF
_BOR_SBODEN                       00003DFF
_CONFIG1                          00002007
_CONFIG2                          00002008
_CPD_OFF                          00003FFF
_CPD_ON                           00003F7F
_CP_OFF                           00003FFF
_CP_ON                            00003FBF
_DEBUG_OFF                        00003FFF
_DEBUG_ON                         00001FFF
_DEVID1                           00002006
_EC_OSC                           00003FFB
_EXTRC                            00003FFF
_EXTRCIO                          00003FFE
_EXTRC_OSC_CLKOUT                 00003FFF
_EXTRC_OSC_NOCLKOUT               00003FFE
MPASM  5.51                     TM1621LCD.ASM   2-21-2018  11:21:32         PAGE 30


SYMBOL TABLE
  LABEL                             VALUE 

_FCMEN_OFF                        000037FF
_FCMEN_ON                         00003FFF
_FOSC_EC                          00003FFB
_FOSC_EXTRC_CLKOUT                00003FFF
_FOSC_EXTRC_NOCLKOUT              00003FFE
_FOSC_HS                          00003FFA
_FOSC_INTRC_CLKOUT                00003FFD
_FOSC_INTRC_NOCLKOUT              00003FFC
_FOSC_LP                          00003FF8
_FOSC_XT                          00003FF9
_HS_OSC                           00003FFA
_IDLOC0                           00002000
_IDLOC1                           00002001
_IDLOC2                           00002002
_IDLOC3                           00002003
_IESO_OFF                         00003BFF
_IESO_ON                          00003FFF
_INTOSC                           00003FFD
_INTOSCIO                         00003FFC
_INTRC_OSC_CLKOUT                 00003FFD
_INTRC_OSC_NOCLKOUT               00003FFC
_LP_OSC                           00003FF8
_LVP_OFF                          00002FFF
_LVP_ON                           00003FFF
_MCLRE_OFF                        00003FDF
_MCLRE_ON                         00003FFF
_PWRTE_OFF                        00003FFF
_PWRTE_ON                         00003FEF
_WDTE_OFF                         00003FF7
_WDTE_ON                          00003FFF
_WDT_OFF                          00003FF7
_WDT_ON                           00003FFF
_WRT_1FOURTH                      00003BFF
_WRT_256                          00003DFF
_WRT_HALF                         000039FF
_WRT_OFF                          00003FFF
_XT_OSC                           00003FF9
__16F887                          00000001
__DEBUG                           1
buf_temp                          00000001
counter                           00000002
empty                             00000000
init_LCD                          00000000
koma_set                          000000A1
koma_set1                         000000B1
koma_set2                         000000BB
koma_set3                         000000C5
nextASCII                         0000008A
nextASCII_1                       00000173
nextASCII_2                       00000194
nextASCII_3                       000001B5
next_dupl                         0000003D
next_dupl_bit                     00000032
MPASM  5.51                     TM1621LCD.ASM   2-21-2018  11:21:32         PAGE 31


SYMBOL TABLE
  LABEL                             VALUE 

next_dupl_byte                    00000030
next_koma                         000000AD
pause_3us                         00000000
pause_5us                         00000000
send_next_bit                     00000057
send_next_byte                    00000053
send_zero                         0000006E
send_zero_1                       0000022B
send_zero_2                       00000266
send_zero_3                       0000027C
send_zero_4                       0000004C
shift_bit                         0000005A
simb0                             0000007D
simb0_                            000000FD
simb1                             00000060
simb1_                            000000E0
simb2                             0000003E
simb2_                            000000BE
simb3                             0000007A
simb3_                            000000FA
simb4                             00000063
simb4_                            000000E3
simb5                             0000005B
simb5_                            000000DB
simb6                             0000005F
simb6_                            000000DF
simb7                             00000070
simb7_                            000000F0
simb8                             0000007F
simb8_                            000000FF
simb9                             0000007B
simb9_                            000000FB
simbA                             00000077
simbC                             0000001D
simbE                             0000001F
simbF                             00000017
simbG                             0000005D
simbH                             00000067
simbJ                             0000006C
simbL                             0000000D
simbP                             00000037
simbU                             0000006D
simbY                             0000006B
simb_pos                          00000000
simb_temp                         00000003
simbb                             0000004F
simbd                             0000006E
simbmin                           00000002
simbn                             00000046
simbr                             00000006
simbt                             0000000F
temp                              00000000
temp2                             00000004
MPASM  5.51                     TM1621LCD.ASM   2-21-2018  11:21:32         PAGE 32


SYMBOL TABLE
  LABEL                             VALUE 

test_dupl_bit                     00000035
zero_dupl                         00000042

Errors   :     0
Warnings :     0 reported,     0 suppressed
Messages :     0 reported,     0 suppressed

